; Listing generated by Microsoft (R) Optimizing Compiler Version 19.44.35225.0 

include listing.inc

INCLUDELIB MSVCRTD
INCLUDELIB OLDNAMES

msvcjmc	SEGMENT
__4C2AD0C7_winpackagefamily@h DB 01H
__9DED9ED1_winapifamily@h DB 01H
__12FEDF4E_sdkddkver@h DB 01H
__CAC6218A_concurrencysal@h DB 01H
__923ADC70_sal@h DB 01H
__CAE69F4E_vadefs@h DB 01H
__97B5484C_vcruntime@h DB 01H
__745DDA86_excpt@h DB 01H
__86344FE7_stdarg@h DB 01H
__6B04FCB3_specstrings_undef@h DB 01H
__F4027AF7_specstrings_strict@h DB 01H
__B90340D4_sdv_driverspecs@h DB 01H
__BFFF5AD3_driverspecs@h DB 01H
__32847078_specstrings@h DB 01H
__735960E1_corecrt@h DB 01H
__108B2620_corecrt_wctype@h DB 01H
__6CD6613D_ctype@h DB 01H
__30902A1F_kernelspecs@h DB 01H
__376FD5CA_basetsd@h DB 01H
__13DE2371_errno@h DB 01H
__4AF9C383_vcruntime_string@h DB 01H
__8ACB2152_corecrt_memcpy_s@h DB 01H
__EA6C9D17_corecrt_memory@h DB 01H
__0DF2AF52_corecrt_wstring@h DB 01H
__6E889ECC_string@h DB 01H
__9BEDF4DE_guiddef@h DB 01H
__51BFD2FE_pshpack4@h DB 01H
__31652CEA_poppack@h DB 01H
__5532AE4C_pshpack2@h DB 01H
__58A52B9A_pshpack8@h DB 01H
__57741015_pshpack1@h DB 01H
__CDE68C90_apiset@h DB 01H
__0BF06E8D_ktmtypes@h DB 01H
__40C200C0_winnt@h DB 01H
__9336F789_minwindef@h DB 01H
__55136115_windef@h DB 01H
__32205BF0_apisetcconv@h DB 01H
__B48FDEA0_minwinbase@h DB 01H
__3551B028_apiquery2@h DB 01H
__65BE04AA_processenv@h DB 01H
__4767CA46_fileapi@h DB 01H
__282E6C4B_fileapifromapp@h DB 01H
__393AF12C_debugapi@h DB 01H
__EBC502B8_utilapiset@h DB 01H
__1EAD8C69_handleapi@h DB 01H
__D8EF9B29_errhandlingapi@h DB 01H
__97FC1204_fibersapi@h DB 01H
__27448220_namedpipeapi@h DB 01H
__6EA33B2A_profileapi@h DB 01H
__EAC6F673_heapapi@h DB 01H
__D64EEA5A_ioapiset@h DB 01H
__144BD4B6_synchapi@h DB 01H
__03B1C640_interlockedapi@h DB 01H
__DC64CB38_processthreadsapi@h DB 01H
__D719B518_sysinfoapi@h DB 01H
__410385B1_memoryapi@h DB 01H
__C1AD45EF_enclaveapi@h DB 01H
__F4C3AA32_threadpoollegacyapiset@h DB 01H
__AC5A7A9F_threadpoolapiset@h DB 01H
__F5254B21_jobapi@h DB 01H
__BCEA6EE8_jobapi2@h DB 01H
__D18ACE72_wow64apiset@h DB 01H
__669B0D4A_libloaderapi@h DB 01H
__645F7034_securitybaseapi@h DB 01H
__67E58557_namespaceapi@h DB 01H
__599D9D3A_systemtopologyapi@h DB 01H
__2337E373_processtopologyapi@h DB 01H
__02BFF239_securityappcontainer@h DB 01H
__9C196272_realtimeapiset@h DB 01H
__5AB313A4_winerror@h DB 01H
__B7E7187B_timezoneapi@h DB 01H
__6DE9EB6F_winbase@h DB 01H
__56B2AFF2_wingdi@h DB 01H
__BA1161A9_tvout@h DB 01H
__0501A018_winuser@h DB 01H
__EF12FA99_datetimeapi@h DB 01H
__8FA7C3CA_winnls@h DB 01H
__390F0C47_stringapiset@h DB 01H
__28605B0A_wincontypes@h DB 01H
__BFBDE86D_consoleapi@h DB 01H
__C3CAFBF0_consoleapi2@h DB 01H
__C20891C7_consoleapi3@h DB 01H
__717C98B6_wincon@h DB 01H
__2884C177_verrsrc@h DB 01H
__A3FD3A34_winver@h DB 01H
__6F8AD9F1_reason@h DB 01H
__4C90FD6F_winreg@h DB 01H
__68AFEBAD_wnnc@h DB 01H
__5A7AB086_winnetwk@h DB 01H
__2FE8A10C_stralign@h DB 01H
__34558472_winsvc@h DB 01H
__058845F1_mcx@h DB 01H
__7F16006B_ime_cmodes@h DB 01H
__0A3AF599_imm@h DB 01H
__11B87C25_Windows@h DB 01H
__B2EBF128_stdint@h DB 01H
__211DB995_corecrt_malloc@h DB 01H
__955456CD_stddef@h DB 01H
__99AED4FB_corecrt_search@h DB 01H
__8B813BF6_corecrt_wstdlib@h DB 01H
__0C9DDF17_limits@h DB 01H
__E8FB0A68_stdlib@h DB 01H
__1D5608E6_minappmodel@h DB 01H
__1654B1F2_appmodel@h DB 01H
__6754B7F6_MddBootstrap@h DB 01H
__28175BA9_WindowsAppSDK-VersionInfo@h DB 01H
__42360F81_MddBootstrapAutoInitializer@cpp DB 01H
msvcjmc	ENDS
PUBLIC	??0AutoInitialize@Bootstrap@DynamicDependency@ApplicationModel@Windows@Microsoft@@QEAA@XZ ; Microsoft::Windows::ApplicationModel::DynamicDependency::Bootstrap::AutoInitialize::AutoInitialize
PUBLIC	??1AutoInitialize@Bootstrap@DynamicDependency@ApplicationModel@Windows@Microsoft@@QEAA@XZ ; Microsoft::Windows::ApplicationModel::DynamicDependency::Bootstrap::AutoInitialize::~AutoInitialize
PUBLIC	?Options@AutoInitialize@Bootstrap@DynamicDependency@ApplicationModel@Windows@Microsoft@@SA?AW4MddBootstrapInitializeOptions@@XZ ; Microsoft::Windows::ApplicationModel::DynamicDependency::Bootstrap::AutoInitialize::Options
PUBLIC	?Initialize@AutoInitialize@Bootstrap@DynamicDependency@ApplicationModel@Windows@Microsoft@@SAXXZ ; Microsoft::Windows::ApplicationModel::DynamicDependency::Bootstrap::AutoInitialize::Initialize
PUBLIC	__JustMyCode_Default
PUBLIC	??_C@_11LOCGONAA@@				; `string'
EXTRN	atexit:PROC
EXTRN	__imp_exit:PROC
EXTRN	MddBootstrapInitialize2:PROC
EXTRN	MddBootstrapShutdown:PROC
EXTRN	_RTC_CheckStackVars:PROC
EXTRN	_RTC_InitBase:PROC
EXTRN	_RTC_Shutdown:PROC
EXTRN	__CheckForDebuggerJustMyCode:PROC
_BSS	SEGMENT
?g_autoInitialize@Bootstrap@DynamicDependency@ApplicationModel@Windows@Microsoft@@3UAutoInitialize@12345@A DB 01H DUP (?) ; Microsoft::Windows::ApplicationModel::DynamicDependency::Bootstrap::g_autoInitialize
_BSS	ENDS
;	COMDAT pdata
pdata	SEGMENT
$pdata$??0AutoInitialize@Bootstrap@DynamicDependency@ApplicationModel@Windows@Microsoft@@QEAA@XZ DD imagerel $LN3
	DD	imagerel $LN3+55
	DD	imagerel $unwind$??0AutoInitialize@Bootstrap@DynamicDependency@ApplicationModel@Windows@Microsoft@@QEAA@XZ
pdata	ENDS
;	COMDAT pdata
pdata	SEGMENT
$pdata$??1AutoInitialize@Bootstrap@DynamicDependency@ApplicationModel@Windows@Microsoft@@QEAA@XZ DD imagerel $LN4
	DD	imagerel $LN4+48
	DD	imagerel $unwind$??1AutoInitialize@Bootstrap@DynamicDependency@ApplicationModel@Windows@Microsoft@@QEAA@XZ
pdata	ENDS
;	COMDAT pdata
pdata	SEGMENT
$pdata$?Options@AutoInitialize@Bootstrap@DynamicDependency@ApplicationModel@Windows@Microsoft@@SA?AW4MddBootstrapInitializeOptions@@XZ DD imagerel $LN3
	DD	imagerel $LN3+43
	DD	imagerel $unwind$?Options@AutoInitialize@Bootstrap@DynamicDependency@ApplicationModel@Windows@Microsoft@@SA?AW4MddBootstrapInitializeOptions@@XZ
pdata	ENDS
;	COMDAT pdata
pdata	SEGMENT
$pdata$?Initialize@AutoInitialize@Bootstrap@DynamicDependency@ApplicationModel@Windows@Microsoft@@SAXXZ DD imagerel $LN4
	DD	imagerel $LN4+163
	DD	imagerel $unwind$?Initialize@AutoInitialize@Bootstrap@DynamicDependency@ApplicationModel@Windows@Microsoft@@SAXXZ
pdata	ENDS
;	COMDAT pdata
pdata	SEGMENT
$pdata$??__Eg_autoInitialize@Bootstrap@DynamicDependency@ApplicationModel@Windows@Microsoft@@YAXXZ DD imagerel ??__Eg_autoInitialize@Bootstrap@DynamicDependency@ApplicationModel@Windows@Microsoft@@YAXXZ
	DD	imagerel ??__Eg_autoInitialize@Bootstrap@DynamicDependency@ApplicationModel@Windows@Microsoft@@YAXXZ+64
	DD	imagerel $unwind$??__Eg_autoInitialize@Bootstrap@DynamicDependency@ApplicationModel@Windows@Microsoft@@YAXXZ
pdata	ENDS
;	COMDAT pdata
pdata	SEGMENT
$pdata$??__Fg_autoInitialize@Bootstrap@DynamicDependency@ApplicationModel@Windows@Microsoft@@YAXXZ DD imagerel ??__Fg_autoInitialize@Bootstrap@DynamicDependency@ApplicationModel@Windows@Microsoft@@YAXXZ
	DD	imagerel ??__Fg_autoInitialize@Bootstrap@DynamicDependency@ApplicationModel@Windows@Microsoft@@YAXXZ+38
	DD	imagerel $unwind$??__Fg_autoInitialize@Bootstrap@DynamicDependency@ApplicationModel@Windows@Microsoft@@YAXXZ
pdata	ENDS
CRT$XCU	SEGMENT
?g_autoInitialize$initializer$@Bootstrap@DynamicDependency@ApplicationModel@Windows@Microsoft@@3P6AXXZEA DQ FLAT:??__Eg_autoInitialize@Bootstrap@DynamicDependency@ApplicationModel@Windows@Microsoft@@YAXXZ ; Microsoft::Windows::ApplicationModel::DynamicDependency::Bootstrap::g_autoInitialize$initializer$
CRT$XCU	ENDS
;	COMDAT rtc$TMZ
rtc$TMZ	SEGMENT
_RTC_Shutdown.rtc$TMZ DQ FLAT:_RTC_Shutdown
rtc$TMZ	ENDS
;	COMDAT rtc$IMZ
rtc$IMZ	SEGMENT
_RTC_InitBase.rtc$IMZ DQ FLAT:_RTC_InitBase
rtc$IMZ	ENDS
;	COMDAT ??_C@_11LOCGONAA@@
CONST	SEGMENT
??_C@_11LOCGONAA@@ DB 00H, 00H				; `string'
CONST	ENDS
;	COMDAT xdata
xdata	SEGMENT
$unwind$??__Fg_autoInitialize@Bootstrap@DynamicDependency@ApplicationModel@Windows@Microsoft@@YAXXZ DD 025050f01H
	DD	010a230fH
	DD	07003001dH
	DD	05002H
xdata	ENDS
;	COMDAT xdata
xdata	SEGMENT
$unwind$??__Eg_autoInitialize@Bootstrap@DynamicDependency@ApplicationModel@Windows@Microsoft@@YAXXZ DD 025050f01H
	DD	010a230fH
	DD	07003001dH
	DD	05002H
xdata	ENDS
;	COMDAT xdata
xdata	SEGMENT
$unwind$?Initialize@AutoInitialize@Bootstrap@DynamicDependency@ApplicationModel@Windows@Microsoft@@SAXXZ DD 025052001H
	DD	010a230fH
	DD	070030031H
	DD	05002H
xdata	ENDS
;	COMDAT CONST
CONST	SEGMENT
?Initialize@AutoInitialize@Bootstrap@DynamicDependency@ApplicationModel@Windows@Microsoft@@SAXXZ$rtcName$0 DB 063H ; Microsoft::Windows::ApplicationModel::DynamicDependency::Bootstrap::AutoInitialize::Initialize
	DB	05fH
	DB	06dH
	DB	069H
	DB	06eH
	DB	056H
	DB	065H
	DB	072H
	DB	073H
	DB	069H
	DB	06fH
	DB	06eH
	DB	00H
	ORG $+3
?Initialize@AutoInitialize@Bootstrap@DynamicDependency@ApplicationModel@Windows@Microsoft@@SAXXZ$rtcVarDesc DD 068H ; Microsoft::Windows::ApplicationModel::DynamicDependency::Bootstrap::AutoInitialize::Initialize
	DD	08H
	DQ	FLAT:?Initialize@AutoInitialize@Bootstrap@DynamicDependency@ApplicationModel@Windows@Microsoft@@SAXXZ$rtcName$0
	ORG $+48
?Initialize@AutoInitialize@Bootstrap@DynamicDependency@ApplicationModel@Windows@Microsoft@@SAXXZ$rtcFrameData DD 01H ; Microsoft::Windows::ApplicationModel::DynamicDependency::Bootstrap::AutoInitialize::Initialize
	DD	00H
	DQ	FLAT:?Initialize@AutoInitialize@Bootstrap@DynamicDependency@ApplicationModel@Windows@Microsoft@@SAXXZ$rtcVarDesc
CONST	ENDS
;	COMDAT xdata
xdata	SEGMENT
$unwind$?Options@AutoInitialize@Bootstrap@DynamicDependency@ApplicationModel@Windows@Microsoft@@SA?AW4MddBootstrapInitializeOptions@@XZ DD 025050f01H
	DD	010a230fH
	DD	07003001dH
	DD	05002H
xdata	ENDS
;	COMDAT xdata
xdata	SEGMENT
$unwind$??1AutoInitialize@Bootstrap@DynamicDependency@ApplicationModel@Windows@Microsoft@@QEAA@XZ DD 025051301H
	DD	010e2313H
	DD	07007001dH
	DD	05006H
xdata	ENDS
;	COMDAT xdata
xdata	SEGMENT
$unwind$??0AutoInitialize@Bootstrap@DynamicDependency@ApplicationModel@Windows@Microsoft@@QEAA@XZ DD 025051301H
	DD	010e2313H
	DD	07007001dH
	DD	05006H
xdata	ENDS
; Function compile flags: /Odt
;	COMDAT __JustMyCode_Default
_TEXT	SEGMENT
__JustMyCode_Default PROC				; COMDAT
	ret	0
__JustMyCode_Default ENDP
_TEXT	ENDS
; Function compile flags: /Odtp /RTCsu /ZI
;	COMDAT ??__Fg_autoInitialize@Bootstrap@DynamicDependency@ApplicationModel@Windows@Microsoft@@YAXXZ
text$yd	SEGMENT
??__Fg_autoInitialize@Bootstrap@DynamicDependency@ApplicationModel@Windows@Microsoft@@YAXXZ PROC ; Microsoft::Windows::ApplicationModel::DynamicDependency::Bootstrap::`dynamic atexit destructor for 'g_autoInitialize'', COMDAT
	push	rbp
	push	rdi
	sub	rsp, 232				; 000000e8H
	lea	rbp, QWORD PTR [rsp+32]
	lea	rcx, OFFSET FLAT:?g_autoInitialize@Bootstrap@DynamicDependency@ApplicationModel@Windows@Microsoft@@3UAutoInitialize@12345@A
	call	??1AutoInitialize@Bootstrap@DynamicDependency@ApplicationModel@Windows@Microsoft@@QEAA@XZ ; Microsoft::Windows::ApplicationModel::DynamicDependency::Bootstrap::AutoInitialize::~AutoInitialize
	npad	1
	lea	rsp, QWORD PTR [rbp+200]
	pop	rdi
	pop	rbp
	ret	0
??__Fg_autoInitialize@Bootstrap@DynamicDependency@ApplicationModel@Windows@Microsoft@@YAXXZ ENDP ; Microsoft::Windows::ApplicationModel::DynamicDependency::Bootstrap::`dynamic atexit destructor for 'g_autoInitialize''
text$yd	ENDS
; Function compile flags: /Odtp /RTCsu /ZI
;	COMDAT ??__Eg_autoInitialize@Bootstrap@DynamicDependency@ApplicationModel@Windows@Microsoft@@YAXXZ
text$di	SEGMENT
??__Eg_autoInitialize@Bootstrap@DynamicDependency@ApplicationModel@Windows@Microsoft@@YAXXZ PROC ; Microsoft::Windows::ApplicationModel::DynamicDependency::Bootstrap::`dynamic initializer for 'g_autoInitialize'', COMDAT
; File C:\Users\ROG\.nuget\packages\microsoft.windowsappsdk\1.6.250205002\include\MddBootstrapAutoInitializer.cpp
; Line 82
	push	rbp
	push	rdi
	sub	rsp, 232				; 000000e8H
	lea	rbp, QWORD PTR [rsp+32]
	lea	rcx, OFFSET FLAT:__42360F81_MddBootstrapAutoInitializer@cpp
	call	__CheckForDebuggerJustMyCode
	npad	1
	lea	rcx, OFFSET FLAT:?g_autoInitialize@Bootstrap@DynamicDependency@ApplicationModel@Windows@Microsoft@@3UAutoInitialize@12345@A
	call	??0AutoInitialize@Bootstrap@DynamicDependency@ApplicationModel@Windows@Microsoft@@QEAA@XZ ; Microsoft::Windows::ApplicationModel::DynamicDependency::Bootstrap::AutoInitialize::AutoInitialize
	npad	1
	lea	rcx, OFFSET FLAT:??__Fg_autoInitialize@Bootstrap@DynamicDependency@ApplicationModel@Windows@Microsoft@@YAXXZ ; Microsoft::Windows::ApplicationModel::DynamicDependency::Bootstrap::`dynamic atexit destructor for 'g_autoInitialize''
	call	atexit
	npad	1
	lea	rsp, QWORD PTR [rbp+200]
	pop	rdi
	pop	rbp
	ret	0
??__Eg_autoInitialize@Bootstrap@DynamicDependency@ApplicationModel@Windows@Microsoft@@YAXXZ ENDP ; Microsoft::Windows::ApplicationModel::DynamicDependency::Bootstrap::`dynamic initializer for 'g_autoInitialize''
text$di	ENDS
; Function compile flags: /Odtp /RTCsu /ZI
;	COMDAT ?Initialize@AutoInitialize@Bootstrap@DynamicDependency@ApplicationModel@Windows@Microsoft@@SAXXZ
_TEXT	SEGMENT
c_majorMinorVersion$ = 4
c_versionTag$ = 40
c_minVersion$ = 72
c_options$ = 100
hr$ = 132
?Initialize@AutoInitialize@Bootstrap@DynamicDependency@ApplicationModel@Windows@Microsoft@@SAXXZ PROC ; Microsoft::Windows::ApplicationModel::DynamicDependency::Bootstrap::AutoInitialize::Initialize, COMDAT
; File C:\Users\ROG\.nuget\packages\microsoft.windowsappsdk\1.6.250205002\include\MddBootstrapAutoInitializer.cpp
; Line 70
$LN4:
	push	rbp
	push	rdi
	sub	rsp, 392				; 00000188H
	lea	rbp, QWORD PTR [rsp+32]
	lea	rdi, QWORD PTR [rsp+32]
	mov	ecx, 42					; 0000002aH
	mov	eax, -858993460				; ccccccccH
	rep stosd
	lea	rcx, OFFSET FLAT:__42360F81_MddBootstrapAutoInitializer@cpp
	call	__CheckForDebuggerJustMyCode
	npad	1
; Line 71
	mov	DWORD PTR c_majorMinorVersion$[rbp], 65542 ; 00010006H
; Line 72
	lea	rax, OFFSET FLAT:??_C@_11LOCGONAA@@
	mov	QWORD PTR c_versionTag$[rbp], rax
; Line 73
	mov	rax, 1688851582699962368		; 1770019109300000H
	mov	QWORD PTR c_minVersion$[rbp], rax
; Line 74
	call	?Options@AutoInitialize@Bootstrap@DynamicDependency@ApplicationModel@Windows@Microsoft@@SA?AW4MddBootstrapInitializeOptions@@XZ ; Microsoft::Windows::ApplicationModel::DynamicDependency::Bootstrap::AutoInitialize::Options
	mov	DWORD PTR c_options$[rbp], eax
; Line 75
	mov	r9d, 8
	mov	r8, QWORD PTR c_minVersion$[rbp]
	mov	rdx, QWORD PTR c_versionTag$[rbp]
	mov	ecx, 65542				; 00010006H
	call	MddBootstrapInitialize2
	mov	DWORD PTR hr$[rbp], eax
; Line 76
	cmp	DWORD PTR hr$[rbp], 0
	jge	SHORT $LN2@Initialize
; Line 78
	mov	ecx, DWORD PTR hr$[rbp]
	call	QWORD PTR __imp_exit
	npad	1
$LN2@Initialize:
$LN3@Initialize:
; Line 80
	lea	rcx, QWORD PTR [rbp-32]
	lea	rdx, OFFSET FLAT:?Initialize@AutoInitialize@Bootstrap@DynamicDependency@ApplicationModel@Windows@Microsoft@@SAXXZ$rtcFrameData
	call	_RTC_CheckStackVars
	lea	rsp, QWORD PTR [rbp+360]
	pop	rdi
	pop	rbp
	ret	0
?Initialize@AutoInitialize@Bootstrap@DynamicDependency@ApplicationModel@Windows@Microsoft@@SAXXZ ENDP ; Microsoft::Windows::ApplicationModel::DynamicDependency::Bootstrap::AutoInitialize::Initialize
_TEXT	ENDS
; Function compile flags: /Odtp /RTCsu /ZI
;	COMDAT ?Options@AutoInitialize@Bootstrap@DynamicDependency@ApplicationModel@Windows@Microsoft@@SA?AW4MddBootstrapInitializeOptions@@XZ
_TEXT	SEGMENT
?Options@AutoInitialize@Bootstrap@DynamicDependency@ApplicationModel@Windows@Microsoft@@SA?AW4MddBootstrapInitializeOptions@@XZ PROC ; Microsoft::Windows::ApplicationModel::DynamicDependency::Bootstrap::AutoInitialize::Options, COMDAT
; File C:\Users\ROG\.nuget\packages\microsoft.windowsappsdk\1.6.250205002\include\MddBootstrapAutoInitializer.cpp
; Line 40
$LN3:
	push	rbp
	push	rdi
	sub	rsp, 232				; 000000e8H
	lea	rbp, QWORD PTR [rsp+32]
	lea	rcx, OFFSET FLAT:__42360F81_MddBootstrapAutoInitializer@cpp
	call	__CheckForDebuggerJustMyCode
	npad	1
; Line 43
	mov	eax, 8
; Line 67
	lea	rsp, QWORD PTR [rbp+200]
	pop	rdi
	pop	rbp
	ret	0
?Options@AutoInitialize@Bootstrap@DynamicDependency@ApplicationModel@Windows@Microsoft@@SA?AW4MddBootstrapInitializeOptions@@XZ ENDP ; Microsoft::Windows::ApplicationModel::DynamicDependency::Bootstrap::AutoInitialize::Options
_TEXT	ENDS
; Function compile flags: /Odtp /RTCsu /ZI
;	COMDAT ??1AutoInitialize@Bootstrap@DynamicDependency@ApplicationModel@Windows@Microsoft@@QEAA@XZ
_TEXT	SEGMENT
this$ = 224
??1AutoInitialize@Bootstrap@DynamicDependency@ApplicationModel@Windows@Microsoft@@QEAA@XZ PROC ; Microsoft::Windows::ApplicationModel::DynamicDependency::Bootstrap::AutoInitialize::~AutoInitialize, COMDAT
; File C:\Users\ROG\.nuget\packages\microsoft.windowsappsdk\1.6.250205002\include\MddBootstrapAutoInitializer.cpp
; Line 35
$LN4:
	mov	QWORD PTR [rsp+8], rcx
	push	rbp
	push	rdi
	sub	rsp, 232				; 000000e8H
	lea	rbp, QWORD PTR [rsp+32]
	lea	rcx, OFFSET FLAT:__42360F81_MddBootstrapAutoInitializer@cpp
	call	__CheckForDebuggerJustMyCode
	npad	1
; Line 36
	call	MddBootstrapShutdown
	npad	1
; Line 37
	lea	rsp, QWORD PTR [rbp+200]
	pop	rdi
	pop	rbp
	ret	0
??1AutoInitialize@Bootstrap@DynamicDependency@ApplicationModel@Windows@Microsoft@@QEAA@XZ ENDP ; Microsoft::Windows::ApplicationModel::DynamicDependency::Bootstrap::AutoInitialize::~AutoInitialize
_TEXT	ENDS
; Function compile flags: /Odtp /RTCsu /ZI
;	COMDAT ??0AutoInitialize@Bootstrap@DynamicDependency@ApplicationModel@Windows@Microsoft@@QEAA@XZ
_TEXT	SEGMENT
this$ = 224
??0AutoInitialize@Bootstrap@DynamicDependency@ApplicationModel@Windows@Microsoft@@QEAA@XZ PROC ; Microsoft::Windows::ApplicationModel::DynamicDependency::Bootstrap::AutoInitialize::AutoInitialize, COMDAT
; File C:\Users\ROG\.nuget\packages\microsoft.windowsappsdk\1.6.250205002\include\MddBootstrapAutoInitializer.cpp
; Line 29
$LN3:
	mov	QWORD PTR [rsp+8], rcx
	push	rbp
	push	rdi
	sub	rsp, 232				; 000000e8H
	lea	rbp, QWORD PTR [rsp+32]
	lea	rcx, OFFSET FLAT:__42360F81_MddBootstrapAutoInitializer@cpp
	call	__CheckForDebuggerJustMyCode
	npad	1
; Line 31
	call	?Initialize@AutoInitialize@Bootstrap@DynamicDependency@ApplicationModel@Windows@Microsoft@@SAXXZ ; Microsoft::Windows::ApplicationModel::DynamicDependency::Bootstrap::AutoInitialize::Initialize
	npad	1
; Line 32
	mov	rax, QWORD PTR this$[rbp]
	lea	rsp, QWORD PTR [rbp+200]
	pop	rdi
	pop	rbp
	ret	0
??0AutoInitialize@Bootstrap@DynamicDependency@ApplicationModel@Windows@Microsoft@@QEAA@XZ ENDP ; Microsoft::Windows::ApplicationModel::DynamicDependency::Bootstrap::AutoInitialize::AutoInitialize
_TEXT	ENDS
END
